target datalayout = "e-m:e-p270:32:32-p271:32:32-p272:64:64-i64:64-i128:128-f80:128-n8:16:32:64-S128"
target triple = "x86_64-pc-linux-gnu"

%union.pthread_mutex_t = type { %struct.__pthread_mutex_s }
%struct.__pthread_mutex_s = type { i32, i32, i32, i32, i32, i16, i16, %struct.__pthread_internal_list }
%struct.__pthread_internal_list = type { ptr, ptr }
%struct.job_state_t = type { i64, i64, i32, i64 }

@.str.2 = private unnamed_addr constant [29 x i8] c"%s: pthread_mutex_lock(): %m\00", align 1
@.str.7 = private unnamed_addr constant [31 x i8] c"%s: pthread_mutex_unlock(): %m\00", align 1
@cred_job_list = internal global ptr null, align 8
@cred_cache_mutex = internal global %union.pthread_mutex_t zeroinitializer, align 8
@__func__.cred_revoke = private unnamed_addr constant [12 x i8] c"cred_revoke\00", align 1
@.str.9 = private unnamed_addr constant [38 x i8] c"job %u requeued, but started no tasks\00", align 1
@.str.13 = private unnamed_addr constant [15 x i8] c"cred_context.c\00", align 1
@.str.16 = private unnamed_addr constant [53 x i8] c"No cred_job_list, unable to clear expired job states\00", align 1
@__func__._job_state_create = private unnamed_addr constant [18 x i8] c"_job_state_create\00", align 1

; Function Attrs: nounwind uwtable
define internal ptr @_job_state_create(i32 noundef %0) #0 {
  %2 = alloca i32, align 4
  %3 = alloca ptr, align 8
  store i32 %0, ptr %2, align 4
  call void @llvm.lifetime.start.p0(i64 8, ptr %3) #7
  %4 = call ptr @slurm_xcalloc(i64 noundef 1, i64 noundef 32, i1 noundef zeroext true, i1 noundef zeroext false, ptr noundef @.str.13, i32 noundef 90, ptr noundef @__func__._job_state_create)
  store ptr %4, ptr %3, align 8
  %5 = load i32, ptr %2, align 4
  %6 = load ptr, ptr %3, align 8
  %7 = getelementptr inbounds nuw %struct.job_state_t, ptr %6, i32 0, i32 2
  store i32 %5, ptr %7, align 8
  %8 = load ptr, ptr %3, align 8
  %9 = getelementptr inbounds nuw %struct.job_state_t, ptr %8, i32 0, i32 3
  store i64 0, ptr %9, align 8
  %10 = call i64 @time(ptr noundef null) #7
  %11 = load ptr, ptr %3, align 8
  %12 = getelementptr inbounds nuw %struct.job_state_t, ptr %11, i32 0, i32 0
  store i64 %10, ptr %12, align 8
  %13 = load ptr, ptr %3, align 8
  %14 = getelementptr inbounds nuw %struct.job_state_t, ptr %13, i32 0, i32 1
  store i64 2147483647, ptr %14, align 8
  %15 = load ptr, ptr %3, align 8
  call void @llvm.lifetime.end.p0(i64 8, ptr %3) #7
  ret ptr %15
}

; Function Attrs: nounwind uwtable
define internal ptr @_find_job_state(i32 noundef %0) #0 {
  %2 = alloca i32, align 4
  store i32 %0, ptr %2, align 4
  %3 = load ptr, ptr @cred_job_list, align 8
  %4 = call ptr @list_find_first(ptr noundef %3, ptr noundef @_list_find_job_state, ptr noundef %2)
  ret ptr %4
}

; Function Attrs: nounwind uwtable
define internal void @_clear_expired_job_states() #0 {
  %1 = alloca i64, align 8
  %2 = alloca i32, align 4
  call void @llvm.lifetime.start.p0(i64 8, ptr %1) #7
  %3 = load ptr, ptr @cred_job_list, align 8
  %4 = icmp ne ptr %3, null
  br i1 %4, label %6, label %5

5:                                                ; preds = %0
  call void (ptr, ...) @warning(ptr noundef @.str.16)
  store i32 1, ptr %2, align 4
  br label %10

6:                                                ; preds = %0
  %7 = call i64 @time(ptr noundef null) #7
  store i64 %7, ptr %1, align 8
  %8 = load ptr, ptr @cred_job_list, align 8
  %9 = call i32 @list_delete_all(ptr noundef %8, ptr noundef @_list_find_expired_job_state, ptr noundef %1)
  store i32 0, ptr %2, align 4
  br label %10

10:                                               ; preds = %6, %5
  call void @llvm.lifetime.end.p0(i64 8, ptr %1) #7
  %11 = load i32, ptr %2, align 4
  switch i32 %11, label %13 [
    i32 0, label %12
    i32 1, label %12
  ]

12:                                               ; preds = %10, %10
  ret void

13:                                               ; preds = %10
  unreachable
}

; Function Attrs: nounwind uwtable
define dso_local i32 @cred_revoke(i32 noundef %0, i64 noundef %1, i64 noundef %2) #0 {
  %4 = alloca i32, align 4
  %5 = alloca i32, align 4
  %6 = alloca i64, align 8
  %7 = alloca i64, align 8
  %8 = alloca ptr, align 8
  %9 = alloca i32, align 4
  %10 = alloca i32, align 4
  %11 = alloca i32, align 4
  %12 = alloca i32, align 4
  store i32 %0, ptr %5, align 4
  store i64 %1, ptr %6, align 8
  store i64 %2, ptr %7, align 8
  call void @llvm.lifetime.start.p0(i64 8, ptr %8) #7
  store ptr null, ptr %8, align 8
  br label %13

13:                                               ; preds = %3
  call void @llvm.lifetime.start.p0(i64 4, ptr %9) #7
  %14 = call i32 @pthread_mutex_lock(ptr noundef @cred_cache_mutex) #7
  store i32 %14, ptr %9, align 4
  %15 = load i32, ptr %9, align 4
  %16 = icmp ne i32 %15, 0
  br i1 %16, label %17, label %20

17:                                               ; preds = %13
  %18 = load i32, ptr %9, align 4
  %19 = call ptr @__errno_location() #8
  store i32 %18, ptr %19, align 4
  call void (ptr, ...) @fatal_abort(ptr noundef @.str.2, ptr noundef @__func__.cred_revoke) #9
  unreachable

20:                                               ; preds = %13
  call void @llvm.lifetime.end.p0(i64 4, ptr %9) #7
  br label %21

21:                                               ; preds = %20
  br label %22

22:                                               ; preds = %21
  call void @_clear_expired_job_states()
  %23 = load i32, ptr %5, align 4
  %24 = call ptr @_find_job_state(i32 noundef %23)
  store ptr %24, ptr %8, align 8
  %25 = icmp ne ptr %24, null
  br i1 %25, label %31, label %26

26:                                               ; preds = %22
  %27 = load i32, ptr %5, align 4
  %28 = call ptr @_job_state_create(i32 noundef %27)
  store ptr %28, ptr %8, align 8
  %29 = load ptr, ptr @cred_job_list, align 8
  %30 = load ptr, ptr %8, align 8
  call void @list_append(ptr noundef %29, ptr noundef %30)
  br label %31

31:                                               ; preds = %26, %22
  %32 = load ptr, ptr %8, align 8
  %33 = getelementptr inbounds nuw %struct.job_state_t, ptr %32, i32 0, i32 3
  %34 = load i64, ptr %33, align 8
  %35 = icmp ne i64 %34, 0
  br i1 %35, label %36, label %62

36:                                               ; preds = %31
  %37 = load i64, ptr %7, align 8
  %38 = icmp ne i64 %37, 0
  br i1 %38, label %39, label %59

39:                                               ; preds = %36
  %40 = load ptr, ptr %8, align 8
  %41 = getelementptr inbounds nuw %struct.job_state_t, ptr %40, i32 0, i32 3
  %42 = load i64, ptr %41, align 8
  %43 = load i64, ptr %7, align 8
  %44 = icmp slt i64 %42, %43
  br i1 %44, label %45, label %59

45:                                               ; preds = %39
  br label %46

46:                                               ; preds = %45
  br label %47

47:                                               ; preds = %46
  %48 = call i32 @get_log_level()
  %49 = icmp sge i32 %48, 5
  br i1 %49, label %50, label %52

50:                                               ; preds = %47
  %51 = load i32, ptr %5, align 4
  call void (i32, ptr, ...) @log_var(i32 noundef 5, ptr noundef @.str.9, i32 noundef %51)
  br label %52

52:                                               ; preds = %50, %47
  br label %53

53:                                               ; preds = %52
  br label %54

54:                                               ; preds = %53
  br label %55

55:                                               ; preds = %54
  br label %56

56:                                               ; preds = %55
  %57 = load ptr, ptr %8, align 8
  %58 = getelementptr inbounds nuw %struct.job_state_t, ptr %57, i32 0, i32 1
  store i64 2147483647, ptr %58, align 8
  br label %61

59:                                               ; preds = %39, %36
  %60 = call ptr @__errno_location() #8
  store i32 17, ptr %60, align 4
  br label %76

61:                                               ; preds = %56
  br label %62

62:                                               ; preds = %61, %31
  %63 = load i64, ptr %6, align 8
  %64 = load ptr, ptr %8, align 8
  %65 = getelementptr inbounds nuw %struct.job_state_t, ptr %64, i32 0, i32 3
  store i64 %63, ptr %65, align 8
  br label %66

66:                                               ; preds = %62
  call void @llvm.lifetime.start.p0(i64 4, ptr %10) #7
  %67 = call i32 @pthread_mutex_unlock(ptr noundef @cred_cache_mutex) #7
  store i32 %67, ptr %10, align 4
  %68 = load i32, ptr %10, align 4
  %69 = icmp ne i32 %68, 0
  br i1 %69, label %70, label %73

70:                                               ; preds = %66
  %71 = load i32, ptr %10, align 4
  %72 = call ptr @__errno_location() #8
  store i32 %71, ptr %72, align 4
  call void (ptr, ...) @fatal_abort(ptr noundef @.str.7, ptr noundef @__func__.cred_revoke) #9
  unreachable

73:                                               ; preds = %66
  call void @llvm.lifetime.end.p0(i64 4, ptr %10) #7
  br label %74

74:                                               ; preds = %73
  br label %75

75:                                               ; preds = %74
  store i32 0, ptr %4, align 4
  store i32 1, ptr %11, align 4
  br label %87

76:                                               ; preds = %59
  br label %77

77:                                               ; preds = %76
  call void @llvm.lifetime.start.p0(i64 4, ptr %12) #7
  %78 = call i32 @pthread_mutex_unlock(ptr noundef @cred_cache_mutex) #7
  store i32 %78, ptr %12, align 4
  %79 = load i32, ptr %12, align 4
  %80 = icmp ne i32 %79, 0
  br i1 %80, label %81, label %84

81:                                               ; preds = %77
  %82 = load i32, ptr %12, align 4
  %83 = call ptr @__errno_location() #8
  store i32 %82, ptr %83, align 4
  call void (ptr, ...) @fatal_abort(ptr noundef @.str.7, ptr noundef @__func__.cred_revoke) #9
  unreachable

84:                                               ; preds = %77
  call void @llvm.lifetime.end.p0(i64 4, ptr %12) #7
  br label %85

85:                                               ; preds = %84
  br label %86

86:                                               ; preds = %85
  store i32 -1, ptr %4, align 4
  store i32 1, ptr %11, align 4
  br label %87

87:                                               ; preds = %86, %75
  call void @llvm.lifetime.end.p0(i64 8, ptr %8) #7
  %88 = load i32, ptr %4, align 4
  ret i32 %88
}