; Function Attrs: nounwind uwtable
define dso_local range(i32 -1, 1) i32 @cred_revoke(i32 noundef %0, i64 noundef %1, i64 noundef %2) local_unnamed_addr #0 {
  %4 = alloca i32, align 4
  %5 = alloca i64, align 8
  %6 = tail call i32 @pthread_mutex_lock(ptr noundef nonnull @cred_cache_mutex) #10
  %.not = icmp eq i32 %6, 0
  br i1 %.not, label %9, label %7

7:                                                ; preds = %3
  %8 = tail call ptr @__errno_location() #11
  store i32 %6, ptr %8, align 4
  tail call void (ptr, ...) @fatal_abort(ptr noundef nonnull @.str.2, ptr noundef nonnull @__func__.cred_revoke) #12
  unreachable

9:                                                ; preds = %3
  call void @llvm.lifetime.start.p0(i64 8, ptr nonnull %5) #10
  %10 = load ptr, ptr @cred_job_list, align 8
  %.not.i = icmp eq ptr %10, null
  br i1 %.not.i, label %11, label %12

11:                                               ; preds = %9
  tail call void (ptr, ...) @warning(ptr noundef nonnull @.str.16) #10
  br label %_clear_expired_job_states.exit

12:                                               ; preds = %9
  %13 = tail call i64 @time(ptr noundef null) #10
  store i64 %13, ptr %5, align 8
  %14 = load ptr, ptr @cred_job_list, align 8
  %15 = call i32 @list_delete_all(ptr noundef %14, ptr noundef nonnull @_list_find_expired_job_state, ptr noundef nonnull %5) #10
  br label %_clear_expired_job_states.exit

_clear_expired_job_states.exit:                   ; preds = %11, %12
  call void @llvm.lifetime.end.p0(i64 8, ptr nonnull %5) #10
  call void @llvm.lifetime.start.p0(i64 4, ptr nonnull %4)
  store i32 %0, ptr %4, align 4
  %16 = load ptr, ptr @cred_job_list, align 8
  %17 = call ptr @list_find_first(ptr noundef %16, ptr noundef nonnull @_list_find_job_state, ptr noundef nonnull %4) #10
  call void @llvm.lifetime.end.p0(i64 4, ptr nonnull %4)
  %.not24 = icmp eq ptr %17, null
  br i1 %.not24, label %18, label %25

18:                                               ; preds = %_clear_expired_job_states.exit
  %19 = call ptr @slurm_xcalloc(i64 noundef 1, i64 noundef 32, i1 noundef zeroext true, i1 noundef zeroext false, ptr noundef nonnull @.str.13, i32 noundef 90, ptr noundef nonnull @__func__._job_state_create) #10
  %20 = getelementptr inbounds nuw i8, ptr %19, i64 16
  store i32 %0, ptr %20, align 8
  %21 = getelementptr inbounds nuw i8, ptr %19, i64 24
  store i64 0, ptr %21, align 8
  %22 = call i64 @time(ptr noundef null) #10
  store i64 %22, ptr %19, align 8
  %23 = getelementptr inbounds nuw i8, ptr %19, i64 8
  store i64 2147483647, ptr %23, align 8
  %24 = load ptr, ptr @cred_job_list, align 8
  call void @list_append(ptr noundef %24, ptr noundef nonnull %19) #10
  br label %25

25:                                               ; preds = %18, %_clear_expired_job_states.exit
  %.017 = phi ptr [ %17, %_clear_expired_job_states.exit ], [ %19, %18 ]
  %26 = getelementptr inbounds nuw i8, ptr %.017, i64 24
  %27 = load i64, ptr %26, align 8
  %.not25 = icmp eq i64 %27, 0
  br i1 %.not25, label %39, label %28

28:                                               ; preds = %25
  %.not26 = icmp ne i64 %2, 0
  %29 = icmp slt i64 %27, %2
  %or.cond = and i1 %.not26, %29
  br i1 %or.cond, label %30, label %36

30:                                               ; preds = %28
  %31 = call i32 @get_log_level() #10
  %32 = icmp sgt i32 %31, 4
  br i1 %32, label %33, label %34

33:                                               ; preds = %30
  call void (i32, ptr, ...) @log_var(i32 noundef 5, ptr noundef nonnull @.str.9, i32 noundef %0) #10
  br label %34

34:                                               ; preds = %33, %30
  %35 = getelementptr inbounds nuw i8, ptr %.017, i64 8
  store i64 2147483647, ptr %35, align 8
  br label %39

36:                                               ; preds = %28
  %37 = tail call ptr @__errno_location() #11
  store i32 17, ptr %37, align 4
  %38 = call i32 @pthread_mutex_unlock(ptr noundef nonnull @cred_cache_mutex) #10
  %.not27 = icmp eq i32 %38, 0
  br i1 %.not27, label %44, label %43

39:                                               ; preds = %34, %25
  store i64 %1, ptr %26, align 8
  %40 = call i32 @pthread_mutex_unlock(ptr noundef nonnull @cred_cache_mutex) #10
  %.not28 = icmp eq i32 %40, 0
  br i1 %.not28, label %44, label %41

41:                                               ; preds = %39
  %42 = tail call ptr @__errno_location() #11
  store i32 %40, ptr %42, align 4
  call void (ptr, ...) @fatal_abort(ptr noundef nonnull @.str.7, ptr noundef nonnull @__func__.cred_revoke) #12
  unreachable

43:                                               ; preds = %36
  store i32 %38, ptr %37, align 4
  call void (ptr, ...) @fatal_abort(ptr noundef nonnull @.str.7, ptr noundef nonnull @__func__.cred_revoke) #12
  unreachable

44:                                               ; preds = %36, %39
  %.0 = phi i32 [ 0, %39 ], [ -1, %36 ]
  ret i32 %.0
}